; Function Attrs: mustprogress nounwind uwtable
define internal void @_ZN7rocksdb12_GLOBAL__N_116CountedDirectoryD0Ev(ptr noundef nonnull align 8 dereferenceable(33) initializes((0, 8)) %0) unnamed_addr #3 align 2 personality ptr @__gxx_personality_v0 {
  store ptr getelementptr inbounds nuw inrange(-16, 48) (i8, ptr @_ZTVN7rocksdb12_GLOBAL__N_116CountedDirectoryE, i64 16), ptr %0, align 8, !tbaa !4
  %2 = getelementptr inbounds nuw i8, ptr %0, i64 32
  %3 = load i8, ptr %2, align 8, !tbaa !153, !range !176, !noundef !177
  %4 = trunc nuw i8 %3 to i1
  br i1 %4, label %13, label %5

5:                                                ; preds = %1
  %6 = getelementptr inbounds nuw i8, ptr %0, i64 24
  %7 = load ptr, ptr %6, align 8, !tbaa !151
  %8 = getelementptr inbounds nuw i8, ptr %7, i64 52
  %9 = atomicrmw add ptr %8, i32 1 seq_cst, align 4
  %10 = load ptr, ptr %6, align 8, !tbaa !151
  %11 = getelementptr inbounds nuw i8, ptr %10, i64 84
  %12 = atomicrmw add ptr %11, i32 1 seq_cst, align 4
  br label %13

13:                                               ; preds = %5, %1
  store ptr getelementptr inbounds nuw inrange(-16, 48) (i8, ptr @_ZTVN7rocksdb18FSDirectoryWrapperE, i64 16), ptr %0, align 8, !tbaa !4
  %14 = getelementptr inbounds nuw i8, ptr %0, i64 8
  %15 = load ptr, ptr %14, align 8, !tbaa !142
  %.not.i.i.i = icmp eq ptr %15, null
  br i1 %.not.i.i.i, label %_ZN7rocksdb12_GLOBAL__N_116CountedDirectoryD2Ev.exit, label %_ZNKSt14default_deleteIN7rocksdb11FSDirectoryEEclEPS1_.exit.i.i.i

_ZNKSt14default_deleteIN7rocksdb11FSDirectoryEEclEPS1_.exit.i.i.i: ; preds = %13
  %16 = load ptr, ptr %15, align 8, !tbaa !4
  %17 = getelementptr inbounds nuw i8, ptr %16, i64 8
  %18 = load ptr, ptr %17, align 8
  tail call void %18(ptr noundef nonnull align 8 dereferenceable(8) %15) #17
  br label %_ZN7rocksdb12_GLOBAL__N_116CountedDirectoryD2Ev.exit

_ZN7rocksdb12_GLOBAL__N_116CountedDirectoryD2Ev.exit: ; preds = %13, %_ZNKSt14default_deleteIN7rocksdb11FSDirectoryEEclEPS1_.exit.i.i.i
  tail call void @_ZdlPvm(ptr noundef nonnull %0, i64 noundef 40) #19
  ret void
}